target datalayout = "e-m:e-p270:32:32-p271:32:32-p272:64:64-i64:64-i128:128-f80:128-n8:16:32:64-S128"
target triple = "x86_64-pc-linux-gnu"

; Function Attrs: nounwind uwtable
define i32 @areUniqueQubits(ptr noundef %0, i32 noundef %1) #0 {
  %3 = alloca i32, align 4
  %4 = alloca ptr, align 8
  %5 = alloca i32, align 4
  %6 = alloca i64, align 8
  %7 = alloca i64, align 8
  %8 = alloca i32, align 4
  %9 = alloca i32, align 4
  store ptr %0, ptr %4, align 8, !tbaa !30
  store i32 %1, ptr %5, align 4, !tbaa !9
  call void @llvm.lifetime.start.p0(i64 8, ptr %6) #7
  store i64 0, ptr %6, align 8, !tbaa !32
  call void @llvm.lifetime.start.p0(i64 8, ptr %7) #7
  call void @llvm.lifetime.start.p0(i64 4, ptr %8) #7
  store i32 0, ptr %8, align 4, !tbaa !9
  br label %10

10:                                               ; preds = %32, %2
  %11 = load i32, ptr %8, align 4, !tbaa !9
  %12 = load i32, ptr %5, align 4, !tbaa !9
  %13 = icmp slt i32 %11, %12
  br i1 %13, label %15, label %14

14:                                               ; preds = %10
  store i32 2, ptr %9, align 4
  br label %35

15:                                               ; preds = %10
  %16 = load ptr, ptr %4, align 8, !tbaa !30
  %17 = load i32, ptr %8, align 4, !tbaa !9
  %18 = sext i32 %17 to i64
  %19 = getelementptr inbounds i32, ptr %16, i64 %18
  %20 = load i32, ptr %19, align 4, !tbaa !9
  %21 = zext i32 %20 to i64
  %22 = shl i64 1, %21
  store i64 %22, ptr %7, align 8, !tbaa !32
  %23 = load i64, ptr %6, align 8, !tbaa !32
  %24 = load i64, ptr %7, align 8, !tbaa !32
  %25 = and i64 %23, %24
  %26 = icmp ne i64 %25, 0
  br i1 %26, label %27, label %28

27:                                               ; preds = %15
  store i32 0, ptr %3, align 4
  store i32 1, ptr %9, align 4
  br label %35

28:                                               ; preds = %15
  %29 = load i64, ptr %7, align 8, !tbaa !32
  %30 = load i64, ptr %6, align 8, !tbaa !32
  %31 = or i64 %30, %29
  store i64 %31, ptr %6, align 8, !tbaa !32
  br label %32

32:                                               ; preds = %28
  %33 = load i32, ptr %8, align 4, !tbaa !9
  %34 = add nsw i32 %33, 1
  store i32 %34, ptr %8, align 4, !tbaa !9
  br label %10

35:                                               ; preds = %27, %14
  call void @llvm.lifetime.end.p0(i64 4, ptr %8) #7
  %36 = load i32, ptr %9, align 4
  switch i32 %36, label %38 [
    i32 2, label %37
  ]

37:                                               ; preds = %35
  store i32 1, ptr %3, align 4
  store i32 1, ptr %9, align 4
  br label %38

38:                                               ; preds = %37, %35
  call void @llvm.lifetime.end.p0(i64 8, ptr %7) #7
  call void @llvm.lifetime.end.p0(i64 8, ptr %6) #7
  %39 = load i32, ptr %3, align 4
  ret i32 %39
}