; Function Attrs: nofree norecurse nosync nounwind memory(argmem: read) uwtable
define range(i32 0, 2) i32 @areUniqueQubits(ptr noundef readonly captures(none) %0, i32 noundef %1) local_unnamed_addr #6 {
  %.not1314 = icmp slt i32 %1, 1
  br i1 %.not1314, label %._crit_edge, label %.lr.ph.preheader

.lr.ph.preheader:                                 ; preds = %2
  %wide.trip.count = zext nneg i32 %1 to i64
  br label %.lr.ph

.lr.ph:                                           ; preds = %.lr.ph.preheader, %8
  %indvars.iv = phi i64 [ 0, %.lr.ph.preheader ], [ %indvars.iv.next, %8 ]
  %.01215 = phi i64 [ 0, %.lr.ph.preheader ], [ %9, %8 ]
  %3 = getelementptr inbounds nuw i32, ptr %0, i64 %indvars.iv
  %4 = load i32, ptr %3, align 4, !tbaa !20
  %5 = zext nneg i32 %4 to i64
  %6 = shl nuw i64 1, %5
  %7 = and i64 %6, %.01215
  %.not = icmp eq i64 %7, 0
  br i1 %.not, label %8, label %._crit_edge

8:                                                ; preds = %.lr.ph
  %9 = or i64 %6, %.01215
  %indvars.iv.next = add nuw nsw i64 %indvars.iv, 1
  %exitcond.not = icmp eq i64 %indvars.iv.next, %wide.trip.count
  br i1 %exitcond.not, label %._crit_edge, label %.lr.ph

._crit_edge:                                      ; preds = %8, %.lr.ph, %2
  %.not13.lcssa = phi i32 [ 1, %2 ], [ 0, %.lr.ph ], [ 1, %8 ]
  ret i32 %.not13.lcssa
}